; Function Attrs: nounwind uwtable
define void @Java_jdk_net_LinuxSocketOptions_setTcpKeepAliveProbes0(ptr noundef %0, ptr nocapture noundef readnone %1, i32 noundef %2, i32 noundef %3) local_unnamed_addr #0 {
  %5 = alloca i32, align 4
  store i32 %3, ptr %5, align 4
  %6 = call i32 @setsockopt(i32 noundef %2, i32 noundef 6, i32 noundef 6, ptr noundef nonnull %5, i32 noundef 4) #4
  %7 = icmp slt i32 %6, 0
  br i1 %7, label %8, label %handleError.exit

8:                                                ; preds = %4
  %9 = tail call ptr @__errno_location() #5
  %10 = load i32, ptr %9, align 4
  %11 = icmp eq i32 %10, 92
  br i1 %11, label %12, label %13

12:                                               ; preds = %8
  call void @JNU_ThrowByName(ptr noundef %0, ptr noundef nonnull @.str.12, ptr noundef nonnull @.str.13) #4
  br label %handleError.exit

13:                                               ; preds = %8
  call void @JNU_ThrowByNameWithLastError(ptr noundef %0, ptr noundef nonnull @.str.14, ptr noundef nonnull @.str.3) #4
  br label %handleError.exit

handleError.exit:                                 ; preds = %4, %12, %13
  ret void
}